target datalayout = "e-m:e-p270:32:32-p271:32:32-p272:64:64-i64:64-i128:128-f80:128-n8:16:32:64-S128"
target triple = "x86_64-pc-linux-gnu"

@ff_table_4_3_exp = hidden global [32828 x i8] zeroinitializer, align 16
@ff_table_4_3_value = hidden global [32828 x i32] zeroinitializer, align 16
@mpegaudiodec_common_tableinit.exp2_lut = internal constant [4 x double] [double 1.000000e+00, double 0x3FF306FE0A31B715, double 0x3FF6A09E667F3BCD, double 0x3FFAE89F995AD3AD], align 16

; Function Attrs: cold nounwind optsize uwtable
define internal void @mpegaudiodec_common_tableinit() #0 {
  %1 = alloca double, align 8
  %2 = alloca i32, align 4
  %3 = alloca double, align 8
  %4 = alloca double, align 8
  %5 = alloca i32, align 4
  %6 = alloca i32, align 4
  %7 = alloca double, align 8
  call void @llvm.lifetime.start.p0(i64 8, ptr %1) #8
  store double 0.000000e+00, ptr %1, align 8, !tbaa !30
  call void @llvm.lifetime.start.p0(i64 4, ptr %2) #8
  store i32 1, ptr %2, align 4, !tbaa !9
  br label %8

8:                                                ; preds = %51, %0
  %9 = load i32, ptr %2, align 4, !tbaa !9
  %10 = icmp slt i32 %9, 32828
  br i1 %10, label %12, label %11

11:                                               ; preds = %8
  call void @llvm.lifetime.end.p0(i64 4, ptr %2) #8
  br label %54

12:                                               ; preds = %8
  call void @llvm.lifetime.start.p0(i64 8, ptr %3) #8
  call void @llvm.lifetime.start.p0(i64 8, ptr %4) #8
  call void @llvm.lifetime.start.p0(i64 4, ptr %5) #8
  call void @llvm.lifetime.start.p0(i64 4, ptr %6) #8
  call void @llvm.lifetime.start.p0(i64 8, ptr %7) #8
  %13 = load i32, ptr %2, align 4, !tbaa !9
  %14 = sdiv i32 %13, 4
  %15 = sitofp i32 %14 to double
  store double %15, ptr %7, align 8, !tbaa !30
  %16 = load i32, ptr %2, align 4, !tbaa !9
  %17 = and i32 %16, 3
  %18 = icmp eq i32 %17, 0
  br i1 %18, label %19, label %25

19:                                               ; preds = %12
  %20 = load double, ptr %7, align 8, !tbaa !30
  %21 = fdiv nsz double %20, 1.759000e+00
  %22 = load double, ptr %7, align 8, !tbaa !30
  %23 = call nsz double @cbrt(double noundef %22) #11
  %24 = fmul nsz double %21, %23
  store double %24, ptr %1, align 8, !tbaa !30
  br label %25

25:                                               ; preds = %19, %12
  %26 = load double, ptr %1, align 8, !tbaa !30
  %27 = load i32, ptr %2, align 4, !tbaa !9
  %28 = and i32 %27, 3
  %29 = sext i32 %28 to i64
  %30 = getelementptr inbounds [4 x double], ptr @mpegaudiodec_common_tableinit.exp2_lut, i64 0, i64 %29
  %31 = load double, ptr %30, align 8, !tbaa !30
  %32 = fmul nsz double %26, %31
  store double %32, ptr %3, align 8, !tbaa !30
  %33 = load double, ptr %3, align 8, !tbaa !30
  %34 = call nsz double @frexp(double noundef %33, ptr noundef %5) #8
  store double %34, ptr %4, align 8, !tbaa !30
  %35 = load double, ptr %4, align 8, !tbaa !30
  %36 = fmul nsz double %35, 0x41E0000000000000
  %37 = call i64 @llvm.llrint.i64.f64(double %36)
  %38 = trunc i64 %37 to i32
  store i32 %38, ptr %6, align 4, !tbaa !9
  %39 = load i32, ptr %5, align 4, !tbaa !9
  %40 = add nsw i32 %39, -103
  store i32 %40, ptr %5, align 4, !tbaa !9
  %41 = load i32, ptr %6, align 4, !tbaa !9
  %42 = load i32, ptr %2, align 4, !tbaa !9
  %43 = sext i32 %42 to i64
  %44 = getelementptr inbounds [32828 x i32], ptr @ff_table_4_3_value, i64 0, i64 %43
  store i32 %41, ptr %44, align 4, !tbaa !9
  %45 = load i32, ptr %5, align 4, !tbaa !9
  %46 = sub nsw i32 0, %45
  %47 = trunc i32 %46 to i8
  %48 = load i32, ptr %2, align 4, !tbaa !9
  %49 = sext i32 %48 to i64
  %50 = getelementptr inbounds [32828 x i8], ptr @ff_table_4_3_exp, i64 0, i64 %49
  store i8 %47, ptr %50, align 1, !tbaa !15
  call void @llvm.lifetime.end.p0(i64 8, ptr %7) #8
  call void @llvm.lifetime.end.p0(i64 4, ptr %6) #8
  call void @llvm.lifetime.end.p0(i64 4, ptr %5) #8
  call void @llvm.lifetime.end.p0(i64 8, ptr %4) #8
  call void @llvm.lifetime.end.p0(i64 8, ptr %3) #8
  br label %51

51:                                               ; preds = %25
  %52 = load i32, ptr %2, align 4, !tbaa !9
  %53 = add nsw i32 %52, 1
  store i32 %53, ptr %2, align 4, !tbaa !9
  br label %8, !llvm.loop !32

54:                                               ; preds = %11
  call void @llvm.lifetime.end.p0(i64 8, ptr %1) #8
  ret void
}