; Function Attrs: cold nofree norecurse nounwind optsize memory(write, argmem: none, inaccessiblemem: none) uwtable
define internal fastcc void @mpegaudiodec_common_tableinit() unnamed_addr #4 {
  %1 = alloca i32, align 4
  br label %3

2:                                                ; preds = %13
  ret void

3:                                                ; preds = %0, %13
  %indvars.iv = phi i64 [ 1, %0 ], [ %indvars.iv.next, %13 ]
  %.014 = phi double [ 0.000000e+00, %0 ], [ %.1, %13 ]
  call void @llvm.lifetime.start.p0(i64 4, ptr nonnull %1) #9
  %4 = trunc nuw nsw i64 %indvars.iv to i32
  %5 = and i32 %4, 3
  %6 = icmp eq i32 %5, 0
  br i1 %6, label %7, label %13

7:                                                ; preds = %3
  %8 = lshr exact i32 %4, 2
  %9 = uitofp nneg i32 %8 to double
  %10 = fdiv nsz double %9, 1.759000e+00
  %11 = tail call nsz double @cbrt(double noundef %9) #11
  %12 = fmul nsz double %10, %11
  br label %13

13:                                               ; preds = %7, %3
  %.1 = phi nsz double [ %12, %7 ], [ %.014, %3 ]
  %14 = and i64 %indvars.iv, 3
  %15 = getelementptr inbounds nuw [4 x double], ptr @mpegaudiodec_common_tableinit.exp2_lut, i64 0, i64 %14
  %16 = load double, ptr %15, align 8, !tbaa !28
  %17 = fmul nsz double %.1, %16
  %18 = call nsz double @frexp(double noundef %17, ptr noundef nonnull %1) #9
  %19 = fmul nsz double %18, 0x41E0000000000000
  %20 = tail call i64 @llvm.llrint.i64.f64(double %19)
  %21 = trunc i64 %20 to i32
  %22 = load i32, ptr %1, align 4, !tbaa !23
  %23 = getelementptr inbounds nuw [32828 x i32], ptr @ff_table_4_3_value, i64 0, i64 %indvars.iv
  store i32 %21, ptr %23, align 4, !tbaa !23
  %24 = trunc i32 %22 to i8
  %25 = sub i8 103, %24
  %26 = getelementptr inbounds nuw [32828 x i8], ptr @ff_table_4_3_exp, i64 0, i64 %indvars.iv
  store i8 %25, ptr %26, align 1, !tbaa !10
  call void @llvm.lifetime.end.p0(i64 4, ptr nonnull %1) #9
  %indvars.iv.next = add nuw nsw i64 %indvars.iv, 1
  %exitcond.not = icmp eq i64 %indvars.iv.next, 32828
  br i1 %exitcond.not, label %2, label %3, !llvm.loop !30
}